; Function Attrs: nounwind uwtable
define ptr @l_Except_bind___rarg(ptr noundef %0, ptr noundef %1) #0 {
  %3 = ptrtoint ptr %0 to i64
  %4 = and i64 %3, 1
  %.not.i24 = icmp eq i64 %4, 0
  br i1 %.not.i24, label %8, label %5

5:                                                ; preds = %2
  %6 = lshr i64 %3, 1
  %7 = trunc i64 %6 to i32
  br label %lean_obj_tag.exit

8:                                                ; preds = %2
  %9 = getelementptr i8, ptr %0, i64 4
  %.val.i = load i32, ptr %9, align 4
  %10 = lshr i32 %.val.i, 24
  br label %lean_obj_tag.exit

lean_obj_tag.exit:                                ; preds = %5, %8
  %.0.i = phi i32 [ %7, %5 ], [ %10, %8 ]
  %11 = icmp eq i32 %.0.i, 0
  br i1 %11, label %12, label %46

12:                                               ; preds = %lean_obj_tag.exit
  %13 = ptrtoint ptr %1 to i64
  %14 = and i64 %13, 1
  %.not31 = icmp eq i64 %14, 0
  br i1 %.not31, label %15, label %lean_dec.exit18

15:                                               ; preds = %12
  %16 = load i32, ptr %1, align 4, !tbaa !4
  %17 = icmp sgt i32 %16, 1
  br i1 %17, label %18, label %20, !prof !13

18:                                               ; preds = %15
  %19 = add nsw i32 %16, -1
  store i32 %19, ptr %1, align 4, !tbaa !4
  br label %lean_dec.exit18

20:                                               ; preds = %15
  %.not.i = icmp eq i32 %16, 0
  br i1 %.not.i, label %lean_dec.exit18, label %21

21:                                               ; preds = %20
  tail call void @lean_dec_ref_cold(ptr noundef nonnull %1) #5
  br label %lean_dec.exit18

lean_dec.exit18:                                  ; preds = %21, %20, %18, %12
  %.val = load i32, ptr %0, align 4, !tbaa !4
  %22 = icmp eq i32 %.val, 1
  br i1 %22, label %65, label %23

23:                                               ; preds = %lean_dec.exit18
  %24 = getelementptr inbounds nuw i8, ptr %0, i64 8
  %25 = load ptr, ptr %24, align 8, !tbaa !9
  %26 = ptrtoint ptr %25 to i64
  %27 = and i64 %26, 1
  %.not32 = icmp eq i64 %27, 0
  br i1 %.not32, label %28, label %lean_inc.exit19

28:                                               ; preds = %23
  %.val.i25 = load i32, ptr %25, align 4, !tbaa !4
  %29 = icmp sgt i32 %.val.i25, 0
  br i1 %29, label %30, label %32, !prof !13

30:                                               ; preds = %28
  %31 = add nuw i32 %.val.i25, 1
  store i32 %31, ptr %25, align 4, !tbaa !4
  br label %lean_inc.exit19

32:                                               ; preds = %28
  %.not.i26 = icmp eq i32 %.val.i25, 0
  br i1 %.not.i26, label %lean_inc.exit19, label %33

33:                                               ; preds = %32
  tail call void @lean_inc_ref_cold(ptr noundef nonnull %25) #5
  br label %lean_inc.exit19

lean_inc.exit19:                                  ; preds = %33, %32, %30, %23
  br i1 %.not.i24, label %34, label %lean_dec.exit17

34:                                               ; preds = %lean_inc.exit19
  %35 = load i32, ptr %0, align 4, !tbaa !4
  %36 = icmp sgt i32 %35, 1
  br i1 %36, label %37, label %39, !prof !13

37:                                               ; preds = %34
  %38 = add nsw i32 %35, -1
  store i32 %38, ptr %0, align 4, !tbaa !4
  br label %lean_dec.exit17

39:                                               ; preds = %34
  %.not.i20 = icmp eq i32 %35, 0
  br i1 %.not.i20, label %lean_dec.exit17, label %40

40:                                               ; preds = %39
  tail call void @lean_dec_ref_cold(ptr noundef nonnull %0) #5
  br label %lean_dec.exit17

lean_dec.exit17:                                  ; preds = %40, %39, %37, %lean_inc.exit19
  tail call void @lean_inc_heartbeat() #5
  %41 = tail call noalias ptr @mi_malloc_small(i64 noundef 16) #5
  %42 = icmp eq ptr %41, null
  br i1 %42, label %43, label %lean_alloc_ctor.exit

43:                                               ; preds = %lean_dec.exit17
  tail call void @lean_internal_panic_out_of_memory() #6
  unreachable

lean_alloc_ctor.exit:                             ; preds = %lean_dec.exit17
  %44 = getelementptr inbounds nuw i8, ptr %41, i64 4
  store i32 1, ptr %41, align 4, !tbaa !4
  store i32 65552, ptr %44, align 4
  %45 = getelementptr inbounds nuw i8, ptr %41, i64 8
  store ptr %25, ptr %45, align 8, !tbaa !9
  br label %65

46:                                               ; preds = %lean_obj_tag.exit
  %47 = getelementptr inbounds nuw i8, ptr %0, i64 8
  %48 = load ptr, ptr %47, align 8, !tbaa !9
  %49 = ptrtoint ptr %48 to i64
  %50 = and i64 %49, 1
  %.not = icmp eq i64 %50, 0
  br i1 %.not, label %51, label %lean_inc.exit

51:                                               ; preds = %46
  %.val.i27 = load i32, ptr %48, align 4, !tbaa !4
  %52 = icmp sgt i32 %.val.i27, 0
  br i1 %52, label %53, label %55, !prof !13

53:                                               ; preds = %51
  %54 = add nuw i32 %.val.i27, 1
  store i32 %54, ptr %48, align 4, !tbaa !4
  br label %lean_inc.exit

55:                                               ; preds = %51
  %.not.i28 = icmp eq i32 %.val.i27, 0
  br i1 %.not.i28, label %lean_inc.exit, label %56

56:                                               ; preds = %55
  tail call void @lean_inc_ref_cold(ptr noundef nonnull %48) #5
  br label %lean_inc.exit

lean_inc.exit:                                    ; preds = %56, %55, %53, %46
  br i1 %.not.i24, label %57, label %lean_dec.exit

57:                                               ; preds = %lean_inc.exit
  %58 = load i32, ptr %0, align 4, !tbaa !4
  %59 = icmp sgt i32 %58, 1
  br i1 %59, label %60, label %62, !prof !13

60:                                               ; preds = %57
  %61 = add nsw i32 %58, -1
  store i32 %61, ptr %0, align 4, !tbaa !4
  br label %lean_dec.exit

62:                                               ; preds = %57
  %.not.i22 = icmp eq i32 %58, 0
  br i1 %.not.i22, label %lean_dec.exit, label %63

63:                                               ; preds = %62
  tail call void @lean_dec_ref_cold(ptr noundef nonnull %0) #5
  br label %lean_dec.exit

lean_dec.exit:                                    ; preds = %63, %62, %60, %lean_inc.exit
  %64 = tail call ptr @lean_apply_1(ptr noundef %1, ptr noundef %48) #5
  br label %65

65:                                               ; preds = %lean_alloc_ctor.exit, %lean_dec.exit18, %lean_dec.exit
  %.1 = phi ptr [ %64, %lean_dec.exit ], [ %41, %lean_alloc_ctor.exit ], [ %0, %lean_dec.exit18 ]
  ret ptr %.1
}